; Function Attrs: nounwind uwtable
define internal fastcc noundef ptr @_readReplicaIdentityStmt() unnamed_addr #0 {
  %1 = alloca i32, align 4
  %2 = tail call noundef ptr @palloc0(i64 noundef 16) #10
  store i32 147, ptr %2, align 4
  call void @llvm.lifetime.start.p0(i64 4, ptr nonnull %1) #10
  %3 = call ptr @pg_strtok(ptr noundef nonnull %1) #10
  %4 = call ptr @pg_strtok(ptr noundef nonnull %1) #10
  %5 = load i32, ptr %1, align 4
  %6 = icmp eq i32 %5, 0
  br i1 %6, label %13, label %7

7:                                                ; preds = %0
  %8 = load i8, ptr %4, align 1
  %9 = icmp eq i8 %8, 92
  br i1 %9, label %10, label %13

10:                                               ; preds = %7
  %11 = getelementptr inbounds nuw i8, ptr %4, i64 1
  %12 = load i8, ptr %11, align 1
  br label %13

13:                                               ; preds = %7, %10, %0
  %14 = phi i8 [ 0, %0 ], [ %12, %10 ], [ %8, %7 ]
  %15 = getelementptr inbounds nuw i8, ptr %2, i64 4
  store i8 %14, ptr %15, align 4
  %16 = call ptr @pg_strtok(ptr noundef nonnull %1) #10
  %17 = call ptr @pg_strtok(ptr noundef nonnull %1) #10
  %18 = load i32, ptr %1, align 4
  switch i32 %18, label %28 [
    i32 0, label %nullable_string.exit
    i32 2, label %19
  ]

19:                                               ; preds = %13
  %20 = load i8, ptr %17, align 1
  %21 = icmp eq i8 %20, 34
  br i1 %21, label %22, label %28

22:                                               ; preds = %19
  %23 = getelementptr inbounds nuw i8, ptr %17, i64 1
  %24 = load i8, ptr %23, align 1
  %25 = icmp eq i8 %24, 34
  br i1 %25, label %26, label %28

26:                                               ; preds = %22
  %27 = call ptr @pstrdup(ptr noundef nonnull @.str.326) #10
  br label %nullable_string.exit

28:                                               ; preds = %22, %19, %13
  %29 = call ptr @debackslash(ptr noundef %17, i32 noundef %18) #10
  br label %nullable_string.exit

nullable_string.exit:                             ; preds = %13, %26, %28
  %.0.i = phi ptr [ %27, %26 ], [ %29, %28 ], [ null, %13 ]
  %30 = getelementptr inbounds nuw i8, ptr %2, i64 8
  store ptr %.0.i, ptr %30, align 8
  call void @llvm.lifetime.end.p0(i64 4, ptr nonnull %1) #10
  ret ptr %2
}